target datalayout = "e-m:e-p270:32:32-p271:32:32-p272:64:64-i64:64-i128:128-f80:128-n8:16:32:64-S128"
target triple = "x86_64-pc-linux-gnu"

%struct.H5VL_loc_params_t = type { i32, i32, %union.anon }
%union.anon = type { %struct.H5VL_loc_by_idx }
%struct.H5VL_loc_by_idx = type { ptr, i32, i32, i64, i64 }

@.str = private unnamed_addr constant [97 x i8] c"generated/home/dtcxzyw/WorkSpace/Projects/compilers/llvm-opt-benchmark/bench/hdf5/hdf5/src/H5O.c\00", align 1
@H5E_CANTSET_g = external global i64, align 8
@H5E_OHDR_g = external global i64, align 8
@H5E_ARGS_g = external global i64, align 8
@H5E_BADVALUE_g = external global i64, align 8
@H5E_BADTYPE_g = external global i64, align 8
@.str.21 = private unnamed_addr constant [28 x i8] c"invalid location identifier\00", align 1
@H5P_LST_DATASET_XFER_ID_g = external global i64, align 8
@H5E_CANTCOPY_g = external global i64, align 8
@H5P_CLS_LINK_CREATE_ID_g = external global i64, align 8
@H5P_LST_LINK_CREATE_ID_g = external global i64, align 8
@.str.94 = private unnamed_addr constant [34 x i8] c"can't set object access arguments\00", align 1
@__func__.H5O__copy_api_common = private unnamed_addr constant [21 x i8] c"H5O__copy_api_common\00", align 1
@.str.96 = private unnamed_addr constant [25 x i8] c"no source name specified\00", align 1
@.str.97 = private unnamed_addr constant [30 x i8] c"no destination name specified\00", align 1
@.str.98 = private unnamed_addr constant [32 x i8] c"not link creation property list\00", align 1
@H5P_LST_OBJECT_COPY_ID_g = external global i64, align 8
@H5P_CLS_OBJECT_COPY_ID_g = external global i64, align 8
@.str.99 = private unnamed_addr constant [30 x i8] c"not object copy property list\00", align 1
@.str.100 = private unnamed_addr constant [22 x i8] c"unable to copy object\00", align 1

; Function Attrs: nounwind uwtable
define internal i32 @H5O__copy_api_common(i64 noundef %0, ptr noundef %1, i64 noundef %2, ptr noundef %3, i64 noundef %4, i64 noundef %5, ptr noundef %6, ptr noundef %7) #0 {
  %9 = alloca i64, align 8
  %10 = alloca ptr, align 8
  %11 = alloca i64, align 8
  %12 = alloca ptr, align 8
  %13 = alloca i64, align 8
  %14 = alloca i64, align 8
  %15 = alloca ptr, align 8
  %16 = alloca ptr, align 8
  %17 = alloca ptr, align 8
  %18 = alloca ptr, align 8
  %19 = alloca %struct.H5VL_loc_params_t, align 8
  %20 = alloca ptr, align 8
  %21 = alloca %struct.H5VL_loc_params_t, align 8
  %22 = alloca i32, align 4
  %23 = alloca i8, align 1
  store i64 %0, ptr %9, align 8
  store ptr %1, ptr %10, align 8
  store i64 %2, ptr %11, align 8
  store ptr %3, ptr %12, align 8
  store i64 %4, ptr %13, align 8
  store i64 %5, ptr %14, align 8
  store ptr %6, ptr %15, align 8
  store ptr %7, ptr %16, align 8
  store ptr null, ptr %17, align 8
  %24 = load ptr, ptr %16, align 8
  %25 = icmp ne ptr %24, null
  br i1 %25, label %26, label %28

26:                                               ; preds = %8
  %27 = load ptr, ptr %16, align 8
  br label %29

28:                                               ; preds = %8
  br label %29

29:                                               ; preds = %28, %26
  %30 = phi ptr [ %27, %26 ], [ %17, %28 ]
  store ptr %30, ptr %18, align 8
  store ptr null, ptr %20, align 8
  store i32 0, ptr %22, align 4
  store i8 0, ptr %23, align 1
  %31 = load ptr, ptr %10, align 8
  %32 = icmp ne ptr %31, null
  br i1 %32, label %33, label %37

33:                                               ; preds = %29
  %34 = load ptr, ptr %10, align 8
  %35 = load i8, ptr %34, align 1
  %36 = icmp ne i8 %35, 0
  br i1 %36, label %52, label %37

37:                                               ; preds = %33, %29
  br label %38

38:                                               ; preds = %37
  br label %39

39:                                               ; preds = %38
  br label %40

40:                                               ; preds = %39
  %41 = load i64, ptr @H5E_ARGS_g, align 8
  %42 = load i64, ptr @H5E_BADVALUE_g, align 8
  %43 = call i32 (ptr, ptr, i32, i64, i64, ptr, ...) @H5E_printf_stack(ptr noundef @.str, ptr noundef @__func__.H5O__copy_api_common, i32 noundef 415, i64 noundef %41, i64 noundef %42, ptr noundef @.str.96)
  br label %44

44:                                               ; preds = %40
  store i8 1, ptr %23, align 1
  %45 = load i8, ptr %23, align 1
  %46 = trunc i8 %45 to i1
  %47 = zext i1 %46 to i8
  store i8 %47, ptr %23, align 1
  br label %48

48:                                               ; preds = %44
  br label %49

49:                                               ; preds = %48
  store i32 -1, ptr %22, align 4
  br label %198

50:                                               ; No predecessors!
  br label %51

51:                                               ; preds = %50
  br label %52

52:                                               ; preds = %51, %33
  %53 = load ptr, ptr %12, align 8
  %54 = icmp ne ptr %53, null
  br i1 %54, label %55, label %59

55:                                               ; preds = %52
  %56 = load ptr, ptr %12, align 8
  %57 = load i8, ptr %56, align 1
  %58 = icmp ne i8 %57, 0
  br i1 %58, label %74, label %59

59:                                               ; preds = %55, %52
  br label %60

60:                                               ; preds = %59
  br label %61

61:                                               ; preds = %60
  br label %62

62:                                               ; preds = %61
  %63 = load i64, ptr @H5E_ARGS_g, align 8
  %64 = load i64, ptr @H5E_BADVALUE_g, align 8
  %65 = call i32 (ptr, ptr, i32, i64, i64, ptr, ...) @H5E_printf_stack(ptr noundef @.str, ptr noundef @__func__.H5O__copy_api_common, i32 noundef 417, i64 noundef %63, i64 noundef %64, ptr noundef @.str.97)
  br label %66

66:                                               ; preds = %62
  store i8 1, ptr %23, align 1
  %67 = load i8, ptr %23, align 1
  %68 = trunc i8 %67 to i1
  %69 = zext i1 %68 to i8
  store i8 %69, ptr %23, align 1
  br label %70

70:                                               ; preds = %66
  br label %71

71:                                               ; preds = %70
  store i32 -1, ptr %22, align 4
  br label %198

72:                                               ; No predecessors!
  br label %73

73:                                               ; preds = %72
  br label %74

74:                                               ; preds = %73, %55
  %75 = load i64, ptr %14, align 8
  %76 = icmp eq i64 0, %75
  br i1 %76, label %77, label %79

77:                                               ; preds = %74
  %78 = load i64, ptr @H5P_LST_LINK_CREATE_ID_g, align 8
  store i64 %78, ptr %14, align 8
  br label %100

79:                                               ; preds = %74
  %80 = load i64, ptr %14, align 8
  %81 = load i64, ptr @H5P_CLS_LINK_CREATE_ID_g, align 8
  %82 = call i32 @H5P_isa_class(i64 noundef %80, i64 noundef %81)
  %83 = icmp ne i32 1, %82
  br i1 %83, label %84, label %99

84:                                               ; preds = %79
  br label %85

85:                                               ; preds = %84
  br label %86

86:                                               ; preds = %85
  br label %87

87:                                               ; preds = %86
  %88 = load i64, ptr @H5E_ARGS_g, align 8
  %89 = load i64, ptr @H5E_BADTYPE_g, align 8
  %90 = call i32 (ptr, ptr, i32, i64, i64, ptr, ...) @H5E_printf_stack(ptr noundef @.str, ptr noundef @__func__.H5O__copy_api_common, i32 noundef 423, i64 noundef %88, i64 noundef %89, ptr noundef @.str.98)
  br label %91

91:                                               ; preds = %87
  store i8 1, ptr %23, align 1
  %92 = load i8, ptr %23, align 1
  %93 = trunc i8 %92 to i1
  %94 = zext i1 %93 to i8
  store i8 %94, ptr %23, align 1
  br label %95

95:                                               ; preds = %91
  br label %96

96:                                               ; preds = %95
  store i32 -1, ptr %22, align 4
  br label %198

97:                                               ; No predecessors!
  br label %98

98:                                               ; preds = %97
  br label %99

99:                                               ; preds = %98, %79
  br label %100

100:                                              ; preds = %99, %77
  %101 = load i64, ptr %13, align 8
  %102 = icmp eq i64 0, %101
  br i1 %102, label %103, label %105

103:                                              ; preds = %100
  %104 = load i64, ptr @H5P_LST_OBJECT_COPY_ID_g, align 8
  store i64 %104, ptr %13, align 8
  br label %126

105:                                              ; preds = %100
  %106 = load i64, ptr %13, align 8
  %107 = load i64, ptr @H5P_CLS_OBJECT_COPY_ID_g, align 8
  %108 = call i32 @H5P_isa_class(i64 noundef %106, i64 noundef %107)
  %109 = icmp ne i32 1, %108
  br i1 %109, label %110, label %125

110:                                              ; preds = %105
  br label %111

111:                                              ; preds = %110
  br label %112

112:                                              ; preds = %111
  br label %113

113:                                              ; preds = %112
  %114 = load i64, ptr @H5E_ARGS_g, align 8
  %115 = load i64, ptr @H5E_BADTYPE_g, align 8
  %116 = call i32 (ptr, ptr, i32, i64, i64, ptr, ...) @H5E_printf_stack(ptr noundef @.str, ptr noundef @__func__.H5O__copy_api_common, i32 noundef 429, i64 noundef %114, i64 noundef %115, ptr noundef @.str.99)
  br label %117

117:                                              ; preds = %113
  store i8 1, ptr %23, align 1
  %118 = load i8, ptr %23, align 1
  %119 = trunc i8 %118 to i1
  %120 = zext i1 %119 to i8
  store i8 %120, ptr %23, align 1
  br label %121

121:                                              ; preds = %117
  br label %122

122:                                              ; preds = %121
  store i32 -1, ptr %22, align 4
  br label %198

123:                                              ; No predecessors!
  br label %124

124:                                              ; preds = %123
  br label %125

125:                                              ; preds = %124, %105
  br label %126

126:                                              ; preds = %125, %103
  %127 = load i64, ptr %14, align 8
  call void @H5CX_set_lcpl(i64 noundef %127)
  %128 = load i64, ptr %9, align 8
  %129 = call i32 @H5VL_setup_loc_args(i64 noundef %128, ptr noundef %20, ptr noundef %21)
  %130 = icmp slt i32 %129, 0
  br i1 %130, label %131, label %146

131:                                              ; preds = %126
  br label %132

132:                                              ; preds = %131
  br label %133

133:                                              ; preds = %132
  br label %134

134:                                              ; preds = %133
  %135 = load i64, ptr @H5E_OHDR_g, align 8
  %136 = load i64, ptr @H5E_CANTSET_g, align 8
  %137 = call i32 (ptr, ptr, i32, i64, i64, ptr, ...) @H5E_printf_stack(ptr noundef @.str, ptr noundef @__func__.H5O__copy_api_common, i32 noundef 436, i64 noundef %135, i64 noundef %136, ptr noundef @.str.94)
  br label %138

138:                                              ; preds = %134
  store i8 1, ptr %23, align 1
  %139 = load i8, ptr %23, align 1
  %140 = trunc i8 %139 to i1
  %141 = zext i1 %140 to i8
  store i8 %141, ptr %23, align 1
  br label %142

142:                                              ; preds = %138
  br label %143

143:                                              ; preds = %142
  store i32 -1, ptr %22, align 4
  br label %198

144:                                              ; No predecessors!
  br label %145

145:                                              ; preds = %144
  br label %146

146:                                              ; preds = %145, %126
  %147 = load i64, ptr %11, align 8
  %148 = call ptr @H5I_object(i64 noundef %147)
  %149 = load ptr, ptr %18, align 8
  store ptr %148, ptr %149, align 8
  %150 = icmp eq ptr null, %148
  br i1 %150, label %151, label %166

151:                                              ; preds = %146
  br label %152

152:                                              ; preds = %151
  br label %153

153:                                              ; preds = %152
  br label %154

154:                                              ; preds = %153
  %155 = load i64, ptr @H5E_ARGS_g, align 8
  %156 = load i64, ptr @H5E_BADTYPE_g, align 8
  %157 = call i32 (ptr, ptr, i32, i64, i64, ptr, ...) @H5E_printf_stack(ptr noundef @.str, ptr noundef @__func__.H5O__copy_api_common, i32 noundef 440, i64 noundef %155, i64 noundef %156, ptr noundef @.str.21)
  br label %158

158:                                              ; preds = %154
  store i8 1, ptr %23, align 1
  %159 = load i8, ptr %23, align 1
  %160 = trunc i8 %159 to i1
  %161 = zext i1 %160 to i8
  store i8 %161, ptr %23, align 1
  br label %162

162:                                              ; preds = %158
  br label %163

163:                                              ; preds = %162
  store i32 -1, ptr %22, align 4
  br label %198

164:                                              ; No predecessors!
  br label %165

165:                                              ; preds = %164
  br label %166

166:                                              ; preds = %165, %146
  %167 = getelementptr inbounds %struct.H5VL_loc_params_t, ptr %19, i32 0, i32 1
  store i32 0, ptr %167, align 4
  %168 = load i64, ptr %11, align 8
  %169 = call i32 @H5I_get_type(i64 noundef %168)
  %170 = getelementptr inbounds %struct.H5VL_loc_params_t, ptr %19, i32 0, i32 0
  store i32 %169, ptr %170, align 8
  %171 = load ptr, ptr %20, align 8
  %172 = load ptr, ptr %10, align 8
  %173 = load ptr, ptr %18, align 8
  %174 = load ptr, ptr %173, align 8
  %175 = load ptr, ptr %12, align 8
  %176 = load i64, ptr %13, align 8
  %177 = load i64, ptr %14, align 8
  %178 = load i64, ptr @H5P_LST_DATASET_XFER_ID_g, align 8
  %179 = load ptr, ptr %15, align 8
  %180 = call i32 @H5VL_object_copy(ptr noundef %171, ptr noundef %21, ptr noundef %172, ptr noundef %174, ptr noundef %19, ptr noundef %175, i64 noundef %176, i64 noundef %177, i64 noundef %178, ptr noundef %179)
  %181 = icmp slt i32 %180, 0
  br i1 %181, label %182, label %197

182:                                              ; preds = %166
  br label %183

183:                                              ; preds = %182
  br label %184

184:                                              ; preds = %183
  br label %185

185:                                              ; preds = %184
  %186 = load i64, ptr @H5E_OHDR_g, align 8
  %187 = load i64, ptr @H5E_CANTCOPY_g, align 8
  %188 = call i32 (ptr, ptr, i32, i64, i64, ptr, ...) @H5E_printf_stack(ptr noundef @.str, ptr noundef @__func__.H5O__copy_api_common, i32 noundef 447, i64 noundef %186, i64 noundef %187, ptr noundef @.str.100)
  br label %189

189:                                              ; preds = %185
  store i8 1, ptr %23, align 1
  %190 = load i8, ptr %23, align 1
  %191 = trunc i8 %190 to i1
  %192 = zext i1 %191 to i8
  store i8 %192, ptr %23, align 1
  br label %193

193:                                              ; preds = %189
  br label %194

194:                                              ; preds = %193
  store i32 -1, ptr %22, align 4
  br label %198

195:                                              ; No predecessors!
  br label %196

196:                                              ; preds = %195
  br label %197

197:                                              ; preds = %196, %166
  br label %198

198:                                              ; preds = %197, %194, %163, %143, %122, %96, %71, %49
  %199 = load i32, ptr %22, align 4
  ret i32 %199
}