; Function Attrs: nounwind uwtable
define internal fastcc range(i32 -1, 1) i32 @H5O__copy_api_common(i64 noundef %0, ptr noundef %1, i64 noundef %2, ptr noundef %3, i64 noundef %4, i64 noundef %5, ptr noundef %6, ptr noundef %7) unnamed_addr #0 {
  %9 = alloca %struct.H5VL_loc_params_t, align 8
  %10 = alloca ptr, align 8
  %11 = alloca %struct.H5VL_loc_params_t, align 8
  %.not = icmp eq ptr %7, null
  store ptr null, ptr %10, align 8
  %.not34 = icmp eq ptr %1, null
  br i1 %.not34, label %14, label %12

12:                                               ; preds = %8
  %13 = load i8, ptr %1, align 1
  %.not35 = icmp eq i8 %13, 0
  br i1 %.not35, label %14, label %18

14:                                               ; preds = %8, %12
  %15 = load i64, ptr @H5E_ARGS_g, align 8
  %16 = load i64, ptr @H5E_BADVALUE_g, align 8
  %17 = tail call i32 (ptr, ptr, i32, i64, i64, ptr, ...) @H5E_printf_stack(ptr noundef nonnull @.str, ptr noundef nonnull @__func__.H5O__copy_api_common, i32 noundef 415, i64 noundef %15, i64 noundef %16, ptr noundef nonnull @.str.96) #4
  br label %73

18:                                               ; preds = %12
  %.not36 = icmp eq ptr %3, null
  br i1 %.not36, label %21, label %19

19:                                               ; preds = %18
  %20 = load i8, ptr %3, align 1
  %.not37 = icmp eq i8 %20, 0
  br i1 %.not37, label %21, label %25

21:                                               ; preds = %18, %19
  %22 = load i64, ptr @H5E_ARGS_g, align 8
  %23 = load i64, ptr @H5E_BADVALUE_g, align 8
  %24 = tail call i32 (ptr, ptr, i32, i64, i64, ptr, ...) @H5E_printf_stack(ptr noundef nonnull @.str, ptr noundef nonnull @__func__.H5O__copy_api_common, i32 noundef 417, i64 noundef %22, i64 noundef %23, ptr noundef nonnull @.str.97) #4
  br label %73

25:                                               ; preds = %19
  %26 = icmp eq i64 %5, 0
  br i1 %26, label %27, label %29

27:                                               ; preds = %25
  %28 = load i64, ptr @H5P_LST_LINK_CREATE_ID_g, align 8
  br label %36

29:                                               ; preds = %25
  %30 = load i64, ptr @H5P_CLS_LINK_CREATE_ID_g, align 8
  %31 = tail call i32 @H5P_isa_class(i64 noundef %5, i64 noundef %30) #4
  %.not38 = icmp eq i32 %31, 1
  br i1 %.not38, label %36, label %32

32:                                               ; preds = %29
  %33 = load i64, ptr @H5E_ARGS_g, align 8
  %34 = load i64, ptr @H5E_BADTYPE_g, align 8
  %35 = tail call i32 (ptr, ptr, i32, i64, i64, ptr, ...) @H5E_printf_stack(ptr noundef nonnull @.str, ptr noundef nonnull @__func__.H5O__copy_api_common, i32 noundef 423, i64 noundef %33, i64 noundef %34, ptr noundef nonnull @.str.98) #4
  br label %73

36:                                               ; preds = %29, %27
  %.029 = phi i64 [ %28, %27 ], [ %5, %29 ]
  %37 = icmp eq i64 %4, 0
  br i1 %37, label %38, label %40

38:                                               ; preds = %36
  %39 = load i64, ptr @H5P_LST_OBJECT_COPY_ID_g, align 8
  br label %47

40:                                               ; preds = %36
  %41 = load i64, ptr @H5P_CLS_OBJECT_COPY_ID_g, align 8
  %42 = tail call i32 @H5P_isa_class(i64 noundef %4, i64 noundef %41) #4
  %.not39 = icmp eq i32 %42, 1
  br i1 %.not39, label %47, label %43

43:                                               ; preds = %40
  %44 = load i64, ptr @H5E_ARGS_g, align 8
  %45 = load i64, ptr @H5E_BADTYPE_g, align 8
  %46 = tail call i32 (ptr, ptr, i32, i64, i64, ptr, ...) @H5E_printf_stack(ptr noundef nonnull @.str, ptr noundef nonnull @__func__.H5O__copy_api_common, i32 noundef 429, i64 noundef %44, i64 noundef %45, ptr noundef nonnull @.str.99) #4
  br label %73

47:                                               ; preds = %40, %38
  %.028 = phi i64 [ %39, %38 ], [ %4, %40 ]
  tail call void @H5CX_set_lcpl(i64 noundef %.029) #4
  %48 = call i32 @H5VL_setup_loc_args(i64 noundef %0, ptr noundef nonnull %10, ptr noundef nonnull %11) #4
  %49 = icmp slt i32 %48, 0
  br i1 %49, label %50, label %54

50:                                               ; preds = %47
  %51 = load i64, ptr @H5E_OHDR_g, align 8
  %52 = load i64, ptr @H5E_CANTSET_g, align 8
  %53 = call i32 (ptr, ptr, i32, i64, i64, ptr, ...) @H5E_printf_stack(ptr noundef nonnull @.str, ptr noundef nonnull @__func__.H5O__copy_api_common, i32 noundef 436, i64 noundef %51, i64 noundef %52, ptr noundef nonnull @.str.94) #4
  br label %73

54:                                               ; preds = %47
  %55 = call ptr @H5I_object(i64 noundef %2) #4
  br i1 %.not, label %.cont, label %.else

.else:                                            ; preds = %54
  store ptr %55, ptr %7, align 8
  br label %.cont

.cont:                                            ; preds = %54, %.else
  %.042 = phi ptr [ null, %.else ], [ %55, %54 ]
  %56 = icmp eq ptr %55, null
  br i1 %56, label %57, label %61

57:                                               ; preds = %.cont
  %58 = load i64, ptr @H5E_ARGS_g, align 8
  %59 = load i64, ptr @H5E_BADTYPE_g, align 8
  %60 = call i32 (ptr, ptr, i32, i64, i64, ptr, ...) @H5E_printf_stack(ptr noundef nonnull @.str, ptr noundef nonnull @__func__.H5O__copy_api_common, i32 noundef 440, i64 noundef %58, i64 noundef %59, ptr noundef nonnull @.str.21) #4
  br label %73

61:                                               ; preds = %.cont
  %62 = getelementptr inbounds i8, ptr %9, i64 4
  store i32 0, ptr %62, align 4
  %63 = call i32 @H5I_get_type(i64 noundef %2) #4
  store i32 %63, ptr %9, align 8
  %64 = load ptr, ptr %10, align 8
  br i1 %.not, label %.cont40, label %.else41

.else41:                                          ; preds = %61
  %.else.val = load ptr, ptr %7, align 8
  br label %.cont40

.cont40:                                          ; preds = %61, %.else41
  %65 = phi ptr [ %.042, %61 ], [ %.else.val, %.else41 ]
  %66 = load i64, ptr @H5P_LST_DATASET_XFER_ID_g, align 8
  %67 = call i32 @H5VL_object_copy(ptr noundef %64, ptr noundef nonnull %11, ptr noundef nonnull %1, ptr noundef %65, ptr noundef nonnull %9, ptr noundef nonnull %3, i64 noundef %.028, i64 noundef %.029, i64 noundef %66, ptr noundef %6) #4
  %68 = icmp slt i32 %67, 0
  br i1 %68, label %69, label %73

69:                                               ; preds = %.cont40
  %70 = load i64, ptr @H5E_OHDR_g, align 8
  %71 = load i64, ptr @H5E_CANTCOPY_g, align 8
  %72 = call i32 (ptr, ptr, i32, i64, i64, ptr, ...) @H5E_printf_stack(ptr noundef nonnull @.str, ptr noundef nonnull @__func__.H5O__copy_api_common, i32 noundef 447, i64 noundef %70, i64 noundef %71, ptr noundef nonnull @.str.100) #4
  br label %73

73:                                               ; preds = %.cont40, %69, %57, %50, %43, %32, %21, %14
  %.0 = phi i32 [ -1, %50 ], [ -1, %57 ], [ -1, %69 ], [ 0, %.cont40 ], [ -1, %43 ], [ -1, %32 ], [ -1, %21 ], [ -1, %14 ]
  ret i32 %.0
}